; Function Attrs: nounwind uwtable
define hidden void @Curl_attach_connection(ptr noundef initializes((24, 32)) %0, ptr noundef %1) local_unnamed_addr #0 {
  %3 = getelementptr inbounds nuw i8, ptr %0, i64 24
  store ptr %1, ptr %3, align 8, !tbaa !109
  %4 = getelementptr inbounds nuw i8, ptr %1, i64 1000
  %5 = getelementptr inbounds nuw i8, ptr %0, i64 64
  tail call void @Curl_llist_append(ptr noundef nonnull %4, ptr noundef %0, ptr noundef nonnull %5) #19
  %6 = getelementptr inbounds nuw i8, ptr %1, i64 960
  %7 = load ptr, ptr %6, align 8, !tbaa !124
  %.not = icmp eq ptr %7, null
  br i1 %.not, label %12, label %8

8:                                                ; preds = %2
  %9 = getelementptr inbounds nuw i8, ptr %7, i64 128
  %10 = load ptr, ptr %9, align 8, !tbaa !142
  %.not11 = icmp eq ptr %10, null
  br i1 %.not11, label %12, label %11

11:                                               ; preds = %8
  tail call void %10(ptr noundef nonnull %0, ptr noundef nonnull %1) #19
  br label %12

12:                                               ; preds = %11, %8, %2
  ret void
}